(lp0
(I0
I1
I4
I3
I9
tp1
a(I0
I1
I4
I9
I3
tp2
a(I0
I1
I3
I4
I9
tp3
a(I0
I1
I3
I9
I4
tp4
a(I0
I1
I9
I4
I3
tp5
a(I0
I1
I9
I3
I4
tp6
a(I0
I4
I1
I3
I9
tp7
a(I0
I4
I1
I9
I3
tp8
a(I0
I4
I3
I1
I9
tp9
a(I0
I4
I9
I1
I3
tp10
a(I0
I4
I9
I3
I1
tp11
a(I0
I3
I1
I4
I9
tp12
a(I0
I3
I1
I9
I4
tp13
a(I0
I3
I4
I1
I9
tp14
a(I0
I3
I4
I9
I1
tp15
a(I0
I3
I9
I1
I4
tp16
a(I0
I3
I9
I4
I1
tp17
a(I0
I9
I1
I4
I3
tp18
a(I0
I9
I1
I3
I4
tp19
a(I0
I9
I4
I1
I3
tp20
a(I0
I9
I4
I3
I1
tp21
a(I0
I9
I3
I1
I4
tp22
a(I0
I9
I3
I4
I1
tp23
a(I1
I0
I4
I3
I9
tp24
a(I1
I0
I4
I9
I3
tp25
a(I1
I0
I3
I4
I9
tp26
a(I1
I0
I3
I9
I4
tp27
a(I1
I0
I9
I4
I3
tp28
a(I1
I0
I9
I3
I4
tp29
a(I1
I4
I0
I3
I9
tp30
a(I1
I4
I0
I9
I3
tp31
a(I1
I4
I3
I0
I9
tp32
a(I1
I4
I3
I9
I0
tp33
a(I1
I4
I9
I0
I3
tp34
a(I1
I4
I9
I3
I0
tp35
a(I1
I3
I0
I4
I9
tp36
a(I1
I3
I0
I9
I4
tp37
a(I1
I3
I4
I0
I9
tp38
a(I1
I3
I4
I9
I0
tp39
a(I1
I3
I9
I0
I4
tp40
a(I1
I3
I9
I4
I0
tp41
a(I1
I9
I0
I4
I3
tp42
a(I1
I9
I0
I3
I4
tp43
a(I1
I9
I4
I0
I3
tp44
a(I1
I9
I4
I3
I0
tp45
a(I1
I9
I3
I0
I4
tp46
a(I1
I9
I3
I4
I0
tp47
a(I4
I0
I1
I3
I9
tp48
a(I4
I0
I1
I9
I3
tp49
a(I4
I0
I3
I1
I9
tp50
a(I4
I0
I3
I9
I1
tp51
a(I4
I0
I9
I1
I3
tp52
a(I4
I0
I9
I3
I1
tp53
a(I4
I1
I0
I3
I9
tp54
a(I4
I1
I0
I9
I3
tp55
a(I4
I1
I3
I0
I9
tp56
a(I4
I1
I3
I9
I0
tp57
a(I4
I1
I9
I0
I3
tp58
a(I4
I1
I9
I3
I0
tp59
a(I4
I3
I0
I1
I9
tp60
a(I4
I3
I0
I9
I1
tp61
a(I4
I3
I1
I0
I9
tp62
a(I4
I3
I1
I9
I0
tp63
a(I4
I3
I9
I0
I1
tp64
a(I4
I3
I9
I1
I0
tp65
a(I4
I9
I0
I1
I3
tp66
a(I4
I9
I0
I3
I1
tp67
a(I4
I9
I1
I0
I3
tp68
a(I4
I9
I1
I3
I0
tp69
a(I4
I9
I3
I0
I1
tp70
a(I4
I9
I3
I1
I0
tp71
a(I3
I0
I1
I4
I9
tp72
a(I3
I0
I1
I9
I4
tp73
a(I3
I0
I4
I1
I9
tp74
a(I3
I0
I4
I9
I1
tp75
a(I3
I0
I9
I1
I4
tp76
a(I3
I0
I9
I4
I1
tp77
a(I3
I1
I0
I4
I9
tp78
a(I3
I1
I0
I9
I4
tp79
a(I3
I1
I4
I0
I9
tp80
a(I3
I1
I4
I9
I0
tp81
a(I3
I1
I9
I4
I0
tp82
a(I3
I4
I0
I1
I9
tp83
a(I3
I4
I0
I9
I1
tp84
a(I3
I4
I1
I0
I9
tp85
a(I3
I4
I1
I9
I0
tp86
a(I3
I4
I9
I0
I1
tp87
a(I3
I4
I9
I1
I0
tp88
a(I3
I9
I0
I1
I4
tp89
a(I3
I9
I0
I4
I1
tp90
a(I3
I9
I1
I0
I4
tp91
a(I3
I9
I1
I4
I0
tp92
a(I3
I9
I4
I0
I1
tp93
a(I3
I9
I4
I1
I0
tp94
a(I9
I0
I1
I3
I4
tp95
a(I9
I0
I4
I1
I3
tp96
a(I9
I0
I4
I3
I1
tp97
a(I9
I0
I3
I1
I4
tp98
a(I9
I0
I3
I4
I1
tp99
a(I9
I1
I0
I4
I3
tp100
a(I9
I1
I0
I3
I4
tp101
a(I9
I1
I4
I0
I3
tp102
a(I9
I1
I4
I3
I0
tp103
a(I9
I1
I3
I0
I4
tp104
a(I9
I1
I3
I4
I0
tp105
a(I9
I4
I0
I1
I3
tp106
a(I9
I4
I0
I3
I1
tp107
a(I9
I4
I1
I0
I3
tp108
a(I9
I4
I1
I3
I0
tp109
a(I9
I4
I3
I0
I1
tp110
a(I9
I4
I3
I1
I0
tp111
a(I9
I3
I0
I1
I4
tp112
a(I9
I3
I0
I4
I1
tp113
a(I9
I3
I1
I0
I4
tp114
a(I9
I3
I1
I4
I0
tp115
a(I9
I3
I4
I0
I1
tp116
a(I9
I3
I4
I1
I0
tp117
a.